target datalayout = "e-m:e-p270:32:32-p271:32:32-p272:64:64-i64:64-i128:128-f80:128-n8:16:32:64-S128"
target triple = "x86_64-pc-linux-gnu"

%struct.GCRef = type { i64 }
%struct.GCstr = type { %struct.GCRef, i8, i8, i8, i8, i32, i32, i32 }

; Function Attrs: nounwind uwtable
define hidden void @lj_lex_init(ptr noundef %0) #0 {
  %2 = alloca ptr, align 8
  %3 = alloca i32, align 4
  %4 = alloca ptr, align 8
  store ptr %0, ptr %2, align 8, !tbaa !4
  call void @llvm.lifetime.start.p0(i64 4, ptr %3) #11
  store i32 0, ptr %3, align 4, !tbaa !11
  br label %5

5:                                                ; preds = %31, %1
  %6 = load i32, ptr %3, align 4, !tbaa !11
  %7 = icmp ult i32 %6, 22
  br i1 %7, label %8, label %34

8:                                                ; preds = %5
  call void @llvm.lifetime.start.p0(i64 8, ptr %4) #11
  %9 = load ptr, ptr %2, align 8, !tbaa !4
  %10 = load i32, ptr %3, align 4, !tbaa !11
  %11 = zext i32 %10 to i64
  %12 = getelementptr inbounds nuw [34 x ptr], ptr @tokennames, i64 0, i64 %11
  %13 = load ptr, ptr %12, align 8, !tbaa !73
  %14 = load i32, ptr %3, align 4, !tbaa !11
  %15 = zext i32 %14 to i64
  %16 = getelementptr inbounds nuw [34 x ptr], ptr @tokennames, i64 0, i64 %15
  %17 = load ptr, ptr %16, align 8, !tbaa !73
  %18 = call i64 @strlen(ptr noundef %17) #13
  %19 = call ptr @lj_str_new(ptr noundef %9, ptr noundef %13, i64 noundef %18)
  store ptr %19, ptr %4, align 8, !tbaa !46
  %20 = load ptr, ptr %4, align 8, !tbaa !46
  %21 = getelementptr inbounds nuw %struct.GCstr, ptr %20, i32 0, i32 1
  %22 = load i8, ptr %21, align 8, !tbaa !75
  %23 = zext i8 %22 to i32
  %24 = or i32 %23, 32
  %25 = trunc i32 %24 to i8
  store i8 %25, ptr %21, align 8, !tbaa !75
  %26 = load i32, ptr %3, align 4, !tbaa !11
  %27 = add i32 %26, 1
  %28 = trunc i32 %27 to i8
  %29 = load ptr, ptr %4, align 8, !tbaa !46
  %30 = getelementptr inbounds nuw %struct.GCstr, ptr %29, i32 0, i32 3
  store i8 %28, ptr %30, align 2, !tbaa !71
  call void @llvm.lifetime.end.p0(i64 8, ptr %4) #11
  br label %31

31:                                               ; preds = %8
  %32 = load i32, ptr %3, align 4, !tbaa !11
  %33 = add i32 %32, 1
  store i32 %33, ptr %3, align 4, !tbaa !11
  br label %5, !llvm.loop !76

34:                                               ; preds = %5
  call void @llvm.lifetime.end.p0(i64 4, ptr %3) #11
  ret void
}