; Function Attrs: nounwind uwtable
define hidden void @lj_lex_init(ptr noundef %0) local_unnamed_addr #0 {
  br label %2

2:                                                ; preds = %1, %2
  %indvars.iv = phi i64 [ 0, %1 ], [ %indvars.iv.next, %2 ]
  %3 = getelementptr inbounds nuw [34 x ptr], ptr @tokennames, i64 0, i64 %indvars.iv
  %4 = load ptr, ptr %3, align 8, !tbaa !65
  %5 = tail call i64 @strlen(ptr noundef nonnull dereferenceable(1) %4) #13
  %6 = tail call ptr @lj_str_new(ptr noundef %0, ptr noundef nonnull %4, i64 noundef %5) #11
  %7 = getelementptr inbounds nuw i8, ptr %6, i64 8
  %8 = load i8, ptr %7, align 8, !tbaa !67
  %9 = or i8 %8, 32
  store i8 %9, ptr %7, align 8, !tbaa !67
  %indvars.iv.next = add nuw nsw i64 %indvars.iv, 1
  %10 = getelementptr inbounds nuw i8, ptr %6, i64 10
  %11 = trunc nuw nsw i64 %indvars.iv.next to i8
  store i8 %11, ptr %10, align 2, !tbaa !59
  %exitcond.not = icmp eq i64 %indvars.iv.next, 22
  br i1 %exitcond.not, label %12, label %2, !llvm.loop !68

12:                                               ; preds = %2
  ret void
}